; Function Attrs: mustprogress nofree norecurse nosync nounwind willreturn memory(read, inaccessiblemem: none) uwtable
define dso_local noundef i32 @_ZNK4base9SampleMap8GetCountEi(ptr noundef nonnull readonly align 8 dereferenceable(88) %this, i32 noundef %value) unnamed_addr #5 align 2 personality ptr @__gxx_personality_v0 {
entry:
  %_M_parent.i.i.i = getelementptr inbounds i8, ptr %this, i64 56
  %0 = load ptr, ptr %_M_parent.i.i.i, align 8
  %add.ptr.i.i.i = getelementptr inbounds i8, ptr %this, i64 48
  %cmp.not5.i.i.i = icmp eq ptr %0, null
  br i1 %cmp.not5.i.i.i, label %return, label %while.body.i.i.i

while.body.i.i.i:                                 ; preds = %entry, %while.body.i.i.i
  %__x.addr.07.i.i.i = phi ptr [ %__x.addr.1.i.i.i, %while.body.i.i.i ], [ %0, %entry ]
  %__y.addr.06.i.i.i = phi ptr [ %__y.addr.1.i.i.i, %while.body.i.i.i ], [ %add.ptr.i.i.i, %entry ]
  %_M_storage.i.i.i.i.i = getelementptr inbounds i8, ptr %__x.addr.07.i.i.i, i64 32
  %1 = load i32, ptr %_M_storage.i.i.i.i.i, align 4
  %cmp.i.i.i.i = icmp slt i32 %1, %value
  %__y.addr.1.i.i.i = select i1 %cmp.i.i.i.i, ptr %__y.addr.06.i.i.i, ptr %__x.addr.07.i.i.i
  %__x.addr.1.in.v.i.i.i = select i1 %cmp.i.i.i.i, i64 24, i64 16
  %__x.addr.1.in.i.i.i = getelementptr inbounds i8, ptr %__x.addr.07.i.i.i, i64 %__x.addr.1.in.v.i.i.i
  %__x.addr.1.i.i.i = load ptr, ptr %__x.addr.1.in.i.i.i, align 8
  %cmp.not.i.i.i = icmp eq ptr %__x.addr.1.i.i.i, null
  br i1 %cmp.not.i.i.i, label %_ZNKSt8_Rb_treeIiSt4pairIKiiESt10_Select1stIS2_ESt4lessIiESaIS2_EE14_M_lower_boundEPKSt13_Rb_tree_nodeIS2_EPKSt18_Rb_tree_node_baseRS1_.exit.i.i, label %while.body.i.i.i, !llvm.loop !7

_ZNKSt8_Rb_treeIiSt4pairIKiiESt10_Select1stIS2_ESt4lessIiESaIS2_EE14_M_lower_boundEPKSt13_Rb_tree_nodeIS2_EPKSt18_Rb_tree_node_baseRS1_.exit.i.i: ; preds = %while.body.i.i.i
  %cmp.i.i.i = icmp eq ptr %__y.addr.1.i.i.i, %add.ptr.i.i.i
  br i1 %cmp.i.i.i, label %return, label %_ZNKSt3mapIiiSt4lessIiESaISt4pairIKiiEEE4findERS3_.exit

_ZNKSt3mapIiiSt4lessIiESaISt4pairIKiiEEE4findERS3_.exit: ; preds = %_ZNKSt8_Rb_treeIiSt4pairIKiiESt10_Select1stIS2_ESt4lessIiESaIS2_EE14_M_lower_boundEPKSt13_Rb_tree_nodeIS2_EPKSt18_Rb_tree_node_baseRS1_.exit.i.i
  %_M_storage.i.i.i3.i.i = getelementptr inbounds i8, ptr %__y.addr.1.i.i.i, i64 32
  %2 = load i32, ptr %_M_storage.i.i.i3.i.i, align 4
  %cmp.i4.i.i = icmp sgt i32 %2, %value
  br i1 %cmp.i4.i.i, label %return, label %if.end

if.end:                                           ; preds = %_ZNKSt3mapIiiSt4lessIiESaISt4pairIKiiEEE4findERS3_.exit
  %second = getelementptr inbounds i8, ptr %__y.addr.1.i.i.i, i64 36
  %3 = load i32, ptr %second, align 4
  br label %return

return:                                           ; preds = %entry, %_ZNKSt8_Rb_treeIiSt4pairIKiiESt10_Select1stIS2_ESt4lessIiESaIS2_EE14_M_lower_boundEPKSt13_Rb_tree_nodeIS2_EPKSt18_Rb_tree_node_baseRS1_.exit.i.i, %_ZNKSt3mapIiiSt4lessIiESaISt4pairIKiiEEE4findERS3_.exit, %if.end
  %retval.0 = phi i32 [ %3, %if.end ], [ 0, %_ZNKSt3mapIiiSt4lessIiESaISt4pairIKiiEEE4findERS3_.exit ], [ 0, %_ZNKSt8_Rb_treeIiSt4pairIKiiESt10_Select1stIS2_ESt4lessIiESaIS2_EE14_M_lower_boundEPKSt13_Rb_tree_nodeIS2_EPKSt18_Rb_tree_node_baseRS1_.exit.i.i ], [ 0, %entry ]
  ret i32 %retval.0
}